target datalayout = "e-m:e-p270:32:32-p271:32:32-p272:64:64-i64:64-i128:128-f80:128-n8:16:32:64-S128"
target triple = "x86_64-pc-linux-gnu"

%struct._object = type { %union.anon, ptr }
%union.anon = type { i64 }
%struct.PyVarObject = type { %struct._object, i64 }
%struct.PyListObject = type { %struct.PyVarObject, ptr, i64 }

@_Py_NoneStruct = external global %struct._object, align 8

; Function Attrs: nounwind uwtable
define internal void @reverse_slice(ptr noundef %0, ptr noundef %1) #0 {
  %3 = alloca ptr, align 8
  %4 = alloca ptr, align 8
  %5 = alloca ptr, align 8
  store ptr %0, ptr %3, align 8, !tbaa !119
  store ptr %1, ptr %4, align 8, !tbaa !119
  %6 = load ptr, ptr %4, align 8, !tbaa !119
  %7 = getelementptr ptr, ptr %6, i32 -1
  store ptr %7, ptr %4, align 8, !tbaa !119
  br label %8

8:                                                ; preds = %12, %2
  %9 = load ptr, ptr %3, align 8, !tbaa !119
  %10 = load ptr, ptr %4, align 8, !tbaa !119
  %11 = icmp ult ptr %9, %10
  br i1 %11, label %12, label %24

12:                                               ; preds = %8
  call void @llvm.lifetime.start.p0(i64 8, ptr %5) #8
  %13 = load ptr, ptr %3, align 8, !tbaa !119
  %14 = load ptr, ptr %13, align 8, !tbaa !36
  store ptr %14, ptr %5, align 8, !tbaa !36
  %15 = load ptr, ptr %4, align 8, !tbaa !119
  %16 = load ptr, ptr %15, align 8, !tbaa !36
  %17 = load ptr, ptr %3, align 8, !tbaa !119
  store ptr %16, ptr %17, align 8, !tbaa !36
  %18 = load ptr, ptr %5, align 8, !tbaa !36
  %19 = load ptr, ptr %4, align 8, !tbaa !119
  store ptr %18, ptr %19, align 8, !tbaa !36
  %20 = load ptr, ptr %3, align 8, !tbaa !119
  %21 = getelementptr ptr, ptr %20, i32 1
  store ptr %21, ptr %3, align 8, !tbaa !119
  %22 = load ptr, ptr %4, align 8, !tbaa !119
  %23 = getelementptr ptr, ptr %22, i32 -1
  store ptr %23, ptr %4, align 8, !tbaa !119
  call void @llvm.lifetime.end.p0(i64 8, ptr %5) #8
  br label %8, !llvm.loop !146

24:                                               ; preds = %8
  ret void
}

; Function Attrs: inlinehint nounwind uwtable
define internal i64 @Py_SIZE(ptr noundef %0) #2 {
  %2 = alloca ptr, align 8
  store ptr %0, ptr %2, align 8, !tbaa !36
  %3 = load ptr, ptr %2, align 8, !tbaa !36
  %4 = getelementptr inbounds nuw %struct.PyVarObject, ptr %3, i32 0, i32 1
  %5 = load i64, ptr %4, align 8, !tbaa !38
  ret i64 %5
}

; Function Attrs: nounwind uwtable
define internal ptr @list_reverse_impl(ptr noundef %0) #0 {
  %2 = alloca ptr, align 8
  store ptr %0, ptr %2, align 8, !tbaa !27
  %3 = load ptr, ptr %2, align 8, !tbaa !27
  %4 = call i64 @Py_SIZE(ptr noundef %3)
  %5 = icmp sgt i64 %4, 1
  br i1 %5, label %6, label %16

6:                                                ; preds = %1
  %7 = load ptr, ptr %2, align 8, !tbaa !27
  %8 = getelementptr inbounds nuw %struct.PyListObject, ptr %7, i32 0, i32 1
  %9 = load ptr, ptr %8, align 8, !tbaa !28
  %10 = load ptr, ptr %2, align 8, !tbaa !27
  %11 = getelementptr inbounds nuw %struct.PyListObject, ptr %10, i32 0, i32 1
  %12 = load ptr, ptr %11, align 8, !tbaa !28
  %13 = load ptr, ptr %2, align 8, !tbaa !27
  %14 = call i64 @Py_SIZE(ptr noundef %13)
  %15 = getelementptr ptr, ptr %12, i64 %14
  call void @reverse_slice(ptr noundef %9, ptr noundef %15)
  br label %16

16:                                               ; preds = %6, %1
  ret ptr @_Py_NoneStruct
}

; Function Attrs: nounwind uwtable
define internal ptr @list_reverse(ptr noundef %0, ptr noundef %1) #0 {
  %3 = alloca ptr, align 8
  %4 = alloca ptr, align 8
  %5 = alloca ptr, align 8
  store ptr %0, ptr %3, align 8, !tbaa !36
  store ptr %1, ptr %4, align 8, !tbaa !36
  call void @llvm.lifetime.start.p0(i64 8, ptr %5) #8
  store ptr null, ptr %5, align 8, !tbaa !36
  %6 = load ptr, ptr %3, align 8, !tbaa !36
  %7 = call ptr @list_reverse_impl(ptr noundef %6)
  store ptr %7, ptr %5, align 8, !tbaa !36
  %8 = load ptr, ptr %5, align 8, !tbaa !36
  call void @llvm.lifetime.end.p0(i64 8, ptr %5) #8
  ret ptr %8
}