; Function Attrs: nofree norecurse nosync nounwind memory(readwrite, inaccessiblemem: none) uwtable
define internal noundef nonnull ptr @list_reverse(ptr noundef readonly captures(none) %0, ptr readnone captures(none) %1) #9 {
  %3 = getelementptr i8, ptr %0, i64 16
  %.val4.i = load i64, ptr %3, align 8, !tbaa !33
  %4 = icmp sgt i64 %.val4.i, 1
  br i1 %4, label %5, label %list_reverse_impl.exit

5:                                                ; preds = %2
  %6 = getelementptr inbounds nuw i8, ptr %0, i64 24
  %7 = load ptr, ptr %6, align 8, !tbaa !27
  %8 = getelementptr ptr, ptr %7, i64 %.val4.i
  %.01011.i.i = getelementptr i8, ptr %8, i64 -8
  %9 = icmp ult ptr %7, %.01011.i.i
  br i1 %9, label %.lr.ph.i.i, label %list_reverse_impl.exit

.lr.ph.i.i:                                       ; preds = %5, %.lr.ph.i.i
  %.01013.i.i = phi ptr [ %.010.i.i, %.lr.ph.i.i ], [ %.01011.i.i, %5 ]
  %.012.i.i = phi ptr [ %12, %.lr.ph.i.i ], [ %7, %5 ]
  %10 = load ptr, ptr %.012.i.i, align 8, !tbaa !112
  %11 = load ptr, ptr %.01013.i.i, align 8, !tbaa !112
  store ptr %11, ptr %.012.i.i, align 8, !tbaa !112
  store ptr %10, ptr %.01013.i.i, align 8, !tbaa !112
  %12 = getelementptr i8, ptr %.012.i.i, i64 8
  %.010.i.i = getelementptr i8, ptr %.01013.i.i, i64 -8
  %13 = icmp ult ptr %12, %.010.i.i
  br i1 %13, label %.lr.ph.i.i, label %list_reverse_impl.exit, !llvm.loop !142

list_reverse_impl.exit:                           ; preds = %.lr.ph.i.i, %2, %5
  ret ptr @_Py_NoneStruct
}